target datalayout = "e-m:e-p270:32:32-p271:32:32-p272:64:64-i64:64-i128:128-f80:128-n8:16:32:64-S128"
target triple = "x86_64-pc-linux-gnu"

%"struct.cv::UMatData" = type { ptr, ptr, i32, i32, ptr, ptr, i64, i32, ptr, ptr, i32, i32, ptr, %"class.std::shared_ptr" }
%"class.std::shared_ptr" = type { %"class.std::__shared_ptr" }
%"class.std::__shared_ptr" = type { ptr, %"class.std::__shared_count" }
%"class.std::__shared_count" = type { ptr }
%struct.tagPyArrayObject_fields = type { %struct._object, ptr, i32, ptr, ptr, ptr, ptr, i32, ptr, ptr }
%struct._object = type { i64, ptr }

; Function Attrs: inlinehint mustprogress nounwind uwtable
define internal noundef ptr @_ZL15PyArray_STRIDESP16tagPyArrayObject(ptr noundef %0) #5 {
  %2 = alloca ptr, align 8
  store ptr %0, ptr %2, align 8, !tbaa !34
  %3 = load ptr, ptr %2, align 8, !tbaa !34
  %4 = getelementptr inbounds nuw %struct.tagPyArrayObject_fields, ptr %3, i32 0, i32 4
  %5 = load ptr, ptr %4, align 8, !tbaa !41
  ret ptr %5
}

; Function Attrs: inlinehint mustprogress nounwind uwtable
define internal noundef ptr @_ZL12PyArray_DATAP16tagPyArrayObject(ptr noundef %0) #5 {
  %2 = alloca ptr, align 8
  store ptr %0, ptr %2, align 8, !tbaa !34
  %3 = load ptr, ptr %2, align 8, !tbaa !34
  %4 = getelementptr inbounds nuw %struct.tagPyArrayObject_fields, ptr %3, i32 0, i32 1
  %5 = load ptr, ptr %4, align 8, !tbaa !36
  ret ptr %5
}

; Function Attrs: mustprogress uwtable
define hidden noundef ptr @_ZNK14NumpyAllocator8allocateEP7_objectiPKiiPm(ptr noundef nonnull align 8 dereferenceable(16) %0, ptr noundef %1, i32 noundef %2, ptr noundef %3, i32 noundef %4, ptr noundef %5) #0 align 2 personality ptr @__gxx_personality_v0 {
  %7 = alloca ptr, align 8
  %8 = alloca ptr, align 8
  %9 = alloca i32, align 4
  %10 = alloca ptr, align 8
  %11 = alloca i32, align 4
  %12 = alloca ptr, align 8
  %13 = alloca ptr, align 8
  %14 = alloca ptr, align 8
  %15 = alloca i32, align 4
  %16 = alloca ptr, align 8
  %17 = alloca i32, align 4
  store ptr %0, ptr %7, align 8, !tbaa !3
  store ptr %1, ptr %8, align 8, !tbaa !8
  store i32 %2, ptr %9, align 4, !tbaa !10
  store ptr %3, ptr %10, align 8, !tbaa !12
  store i32 %4, ptr %11, align 4, !tbaa !10
  store ptr %5, ptr %12, align 8, !tbaa !14
  %18 = load ptr, ptr %7, align 8
  call void @llvm.lifetime.start.p0(i64 8, ptr %13) #14
  %19 = call noalias noundef nonnull ptr @_Znwm(i64 noundef 104) #15
  invoke void @_ZN2cv8UMatDataC1EPKNS_12MatAllocatorE(ptr noundef nonnull align 8 dereferenceable(104) %19, ptr noundef %18)
          to label %20 unwind label %35

20:                                               ; preds = %6
  store ptr %19, ptr %13, align 8, !tbaa !16
  %21 = load ptr, ptr %8, align 8, !tbaa !8
  %22 = call noundef ptr @_ZL12PyArray_DATAP16tagPyArrayObject(ptr noundef %21)
  %23 = load ptr, ptr %13, align 8, !tbaa !16
  %24 = getelementptr inbounds nuw %"struct.cv::UMatData", ptr %23, i32 0, i32 5
  store ptr %22, ptr %24, align 8, !tbaa !18
  %25 = load ptr, ptr %13, align 8, !tbaa !16
  %26 = getelementptr inbounds nuw %"struct.cv::UMatData", ptr %25, i32 0, i32 4
  store ptr %22, ptr %26, align 8, !tbaa !28
  call void @llvm.lifetime.start.p0(i64 8, ptr %16) #14
  %27 = load ptr, ptr %8, align 8, !tbaa !8
  %28 = call noundef ptr @_ZL15PyArray_STRIDESP16tagPyArrayObject(ptr noundef %27)
  store ptr %28, ptr %16, align 8, !tbaa !14
  call void @llvm.lifetime.start.p0(i64 4, ptr %17) #14
  store i32 0, ptr %17, align 4, !tbaa !10
  br label %29

29:                                               ; preds = %49, %20
  %30 = load i32, ptr %17, align 4, !tbaa !10
  %31 = load i32, ptr %9, align 4, !tbaa !10
  %32 = sub nsw i32 %31, 1
  %33 = icmp slt i32 %30, %32
  br i1 %33, label %39, label %34

34:                                               ; preds = %29
  call void @llvm.lifetime.end.p0(i64 4, ptr %17) #14
  br label %52

35:                                               ; preds = %6
  %36 = landingpad { ptr, i32 }
          cleanup
  %37 = extractvalue { ptr, i32 } %36, 0
  store ptr %37, ptr %14, align 8
  %38 = extractvalue { ptr, i32 } %36, 1
  store i32 %38, ptr %15, align 4
  call void @_ZdlPv(ptr noundef %19) #16
  call void @llvm.lifetime.end.p0(i64 8, ptr %13) #14
  br label %83

39:                                               ; preds = %29
  %40 = load ptr, ptr %16, align 8, !tbaa !14
  %41 = load i32, ptr %17, align 4, !tbaa !10
  %42 = sext i32 %41 to i64
  %43 = getelementptr inbounds i64, ptr %40, i64 %42
  %44 = load i64, ptr %43, align 8, !tbaa !29
  %45 = load ptr, ptr %12, align 8, !tbaa !14
  %46 = load i32, ptr %17, align 4, !tbaa !10
  %47 = sext i32 %46 to i64
  %48 = getelementptr inbounds i64, ptr %45, i64 %47
  store i64 %44, ptr %48, align 8, !tbaa !29
  br label %49

49:                                               ; preds = %39
  %50 = load i32, ptr %17, align 4, !tbaa !10
  %51 = add nsw i32 %50, 1
  store i32 %51, ptr %17, align 4, !tbaa !10
  br label %29, !llvm.loop !30

52:                                               ; preds = %34
  %53 = load i32, ptr %11, align 4, !tbaa !10
  %54 = and i32 %53, 4088
  %55 = ashr i32 %54, 3
  %56 = add nsw i32 %55, 1
  %57 = load i32, ptr %11, align 4, !tbaa !10
  %58 = and i32 %57, 7
  %59 = mul nsw i32 %58, 4
  %60 = ashr i32 675553809, %59
  %61 = and i32 %60, 15
  %62 = mul nsw i32 %56, %61
  %63 = sext i32 %62 to i64
  %64 = load ptr, ptr %12, align 8, !tbaa !14
  %65 = load i32, ptr %9, align 4, !tbaa !10
  %66 = sub nsw i32 %65, 1
  %67 = sext i32 %66 to i64
  %68 = getelementptr inbounds i64, ptr %64, i64 %67
  store i64 %63, ptr %68, align 8, !tbaa !29
  %69 = load ptr, ptr %10, align 8, !tbaa !12
  %70 = getelementptr inbounds i32, ptr %69, i64 0
  %71 = load i32, ptr %70, align 4, !tbaa !10
  %72 = sext i32 %71 to i64
  %73 = load ptr, ptr %12, align 8, !tbaa !14
  %74 = getelementptr inbounds i64, ptr %73, i64 0
  %75 = load i64, ptr %74, align 8, !tbaa !29
  %76 = mul i64 %72, %75
  %77 = load ptr, ptr %13, align 8, !tbaa !16
  %78 = getelementptr inbounds nuw %"struct.cv::UMatData", ptr %77, i32 0, i32 6
  store i64 %76, ptr %78, align 8, !tbaa !32
  %79 = load ptr, ptr %8, align 8, !tbaa !8
  %80 = load ptr, ptr %13, align 8, !tbaa !16
  %81 = getelementptr inbounds nuw %"struct.cv::UMatData", ptr %80, i32 0, i32 9
  store ptr %79, ptr %81, align 8, !tbaa !33
  %82 = load ptr, ptr %13, align 8, !tbaa !16
  call void @llvm.lifetime.end.p0(i64 8, ptr %16) #14
  call void @llvm.lifetime.end.p0(i64 8, ptr %13) #14
  ret ptr %82

83:                                               ; preds = %35
  %84 = load ptr, ptr %14, align 8
  %85 = load i32, ptr %15, align 4
  %86 = insertvalue { ptr, i32 } poison, ptr %84, 0
  %87 = insertvalue { ptr, i32 } %86, i32 %85, 1
  resume { ptr, i32 } %87
}