; Function Attrs: mustprogress uwtable
define hidden noundef nonnull ptr @_ZNK14NumpyAllocator8allocateEP7_objectiPKiiPm(ptr noundef nonnull align 8 dereferenceable(16) %0, ptr noundef %1, i32 noundef %2, ptr noundef readonly captures(none) %3, i32 noundef %4, ptr noundef captures(none) %5) local_unnamed_addr #0 align 2 personality ptr @__gxx_personality_v0 {
  %7 = tail call noalias noundef nonnull dereferenceable(104) ptr @_Znwm(i64 noundef 104) #11
  invoke void @_ZN2cv8UMatDataC1EPKNS_12MatAllocatorE(ptr noundef nonnull align 8 dereferenceable(104) %7, ptr noundef nonnull %0)
          to label %8 unwind label %32

8:                                                ; preds = %6
  %9 = getelementptr i8, ptr %1, i64 16
  %.val = load ptr, ptr %9, align 8, !tbaa !3
  %10 = getelementptr inbounds nuw i8, ptr %7, i64 32
  store ptr %.val, ptr %10, align 8, !tbaa !16
  %11 = getelementptr inbounds nuw i8, ptr %7, i64 24
  store ptr %.val, ptr %11, align 8, !tbaa !25
  %12 = getelementptr i8, ptr %1, i64 40
  %.val24 = load ptr, ptr %12, align 8, !tbaa !26
  %13 = add i32 %2, -1
  %14 = icmp sgt i32 %2, 1
  br i1 %14, label %.lr.ph.preheader, label %._crit_edge

.lr.ph.preheader:                                 ; preds = %8
  %wide.trip.count = zext nneg i32 %13 to i64
  br label %.lr.ph

._crit_edge:                                      ; preds = %.lr.ph, %8
  %15 = lshr i32 %4, 3
  %16 = and i32 %15, 511
  %17 = add nuw nsw i32 %16, 1
  %18 = shl i32 %4, 2
  %19 = and i32 %18, 28
  %20 = lshr i32 675553809, %19
  %21 = and i32 %20, 15
  %22 = mul nuw nsw i32 %21, %17
  %23 = zext nneg i32 %22 to i64
  %24 = sext i32 %13 to i64
  %25 = getelementptr inbounds i64, ptr %5, i64 %24
  store i64 %23, ptr %25, align 8, !tbaa !27
  %26 = load i32, ptr %3, align 4, !tbaa !28
  %27 = sext i32 %26 to i64
  %28 = load i64, ptr %5, align 8, !tbaa !27
  %29 = mul i64 %28, %27
  %30 = getelementptr inbounds nuw i8, ptr %7, i64 40
  store i64 %29, ptr %30, align 8, !tbaa !29
  %31 = getelementptr inbounds nuw i8, ptr %7, i64 64
  store ptr %1, ptr %31, align 8, !tbaa !30
  ret ptr %7

32:                                               ; preds = %6
  %33 = landingpad { ptr, i32 }
          cleanup
  tail call void @_ZdlPv(ptr noundef nonnull %7) #12
  resume { ptr, i32 } %33

.lr.ph:                                           ; preds = %.lr.ph.preheader, %.lr.ph
  %indvars.iv = phi i64 [ 0, %.lr.ph.preheader ], [ %indvars.iv.next, %.lr.ph ]
  %34 = getelementptr inbounds nuw i64, ptr %.val24, i64 %indvars.iv
  %35 = load i64, ptr %34, align 8, !tbaa !27
  %36 = getelementptr inbounds nuw i64, ptr %5, i64 %indvars.iv
  store i64 %35, ptr %36, align 8, !tbaa !27
  %indvars.iv.next = add nuw nsw i64 %indvars.iv, 1
  %exitcond.not = icmp eq i64 %indvars.iv.next, %wide.trip.count
  br i1 %exitcond.not, label %._crit_edge, label %.lr.ph, !llvm.loop !31
}